target datalayout = "e-m:e-p270:32:32-p271:32:32-p272:64:64-i64:64-i128:128-f80:128-n8:16:32:64-S128"
target triple = "x86_64-unknown-linux-gnu"

; Function Attrs: mustprogress nounwind uwtable
define dso_local noundef zeroext i1 @_ZN4node4i18n22InitializeICUDirectoryERKNSt7__cxx1112basic_stringIcSt11char_traitsIcESaIcEEEPS6_(ptr noundef nonnull align 8 dereferenceable(32) %path, ptr noundef %error) #4 {
entry:
  %retval = alloca i1, align 1
  %path.addr = alloca ptr, align 8
  %error.addr = alloca ptr, align 8
  %status = alloca i32, align 4
  store ptr %path, ptr %path.addr, align 8
  store ptr %error, ptr %error.addr, align 8
  store i32 0, ptr %status, align 4
  %0 = load ptr, ptr %path.addr, align 8
  %call = call noundef zeroext i1 @_ZNKSt7__cxx1112basic_stringIcSt11char_traitsIcESaIcEE5emptyEv(ptr noundef nonnull align 8 dereferenceable(32) %0) #3
  br i1 %call, label %if.then, label %if.else

if.then:                                          ; preds = %entry
  br label %if.end

if.else:                                          ; preds = %entry
  %1 = load ptr, ptr %path.addr, align 8
  %call1 = call noundef ptr @_ZNKSt7__cxx1112basic_stringIcSt11char_traitsIcESaIcEE5c_strEv(ptr noundef nonnull align 8 dereferenceable(32) %1) #3
  call void @u_setDataDirectory_74(ptr noundef %call1)
  call void @u_init_74(ptr noundef %status)
  br label %if.end

if.end:                                           ; preds = %if.else, %if.then
  %2 = load i32, ptr %status, align 4
  %cmp = icmp eq i32 %2, 0
  br i1 %cmp, label %if.then2, label %if.end3

if.then2:                                         ; preds = %if.end
  store i1 true, ptr %retval, align 1
  br label %return

if.end3:                                          ; preds = %if.end
  %3 = load i32, ptr %status, align 4
  %call4 = call ptr @u_errorName_74(i32 noundef %3)
  %4 = load ptr, ptr %error.addr, align 8
  %call5 = call noundef nonnull align 8 dereferenceable(32) ptr @_ZNSt7__cxx1112basic_stringIcSt11char_traitsIcESaIcEEaSEPKc(ptr noundef nonnull align 8 dereferenceable(32) %4, ptr noundef %call4)
  store i1 false, ptr %retval, align 1
  br label %return

return:                                           ; preds = %if.end3, %if.then2
  %5 = load i1, ptr %retval, align 1
  ret i1 %5
}