; Function Attrs: mustprogress nounwind uwtable
define dso_local noundef zeroext i1 @_ZN4node4i18n22InitializeICUDirectoryERKNSt7__cxx1112basic_stringIcSt11char_traitsIcESaIcEEEPS6_(ptr noundef nonnull align 8 dereferenceable(32) %path, ptr noundef %error) local_unnamed_addr #3 {
entry:
  %status = alloca i32, align 4
  store i32 0, ptr %status, align 4
  %call = tail call noundef zeroext i1 @_ZNKSt7__cxx1112basic_stringIcSt11char_traitsIcESaIcEE5emptyEv(ptr noundef nonnull align 8 dereferenceable(32) %path) #21
  br i1 %call, label %return, label %if.end

if.end:                                           ; preds = %entry
  %call1 = tail call noundef ptr @_ZNKSt7__cxx1112basic_stringIcSt11char_traitsIcESaIcEE5c_strEv(ptr noundef nonnull align 8 dereferenceable(32) %path) #21
  tail call void @u_setDataDirectory_74(ptr noundef %call1) #21
  call void @u_init_74(ptr noundef nonnull %status) #21
  %.pre = load i32, ptr %status, align 4
  %cmp = icmp eq i32 %.pre, 0
  br i1 %cmp, label %return, label %if.end3

if.end3:                                          ; preds = %if.end
  %call4 = call ptr @u_errorName_74(i32 noundef %.pre) #21
  %call5 = call noundef nonnull align 8 dereferenceable(32) ptr @_ZNSt7__cxx1112basic_stringIcSt11char_traitsIcESaIcEEaSEPKc(ptr noundef nonnull align 8 dereferenceable(32) %error, ptr noundef %call4) #21
  br label %return

return:                                           ; preds = %entry, %if.end, %if.end3
  %cmp3 = phi i1 [ true, %if.end ], [ false, %if.end3 ], [ true, %entry ]
  ret i1 %cmp3
}